
========================================================================

** ELF Header Information

    File Name: .\Objects\01_bootloader_no_interrupt_vector.axf

    Machine class: ELFCLASS32 (32-bit)
    Data encoding: ELFDATA2LSB (Little endian)
    Header version: EV_CURRENT (Current version)
    Operating System ABI: none
    ABI Version: 0
    File Type: ET_EXEC (Executable) (2)
    Machine: EM_ARM (ARM)

    Image Entry point: Not specified
    Flags: EF_ARM_ABI_FLOAT_SOFT (0x05000200)

    ARM ELF revision: 5 (ABI version 2)

    Conforms to Soft float procedure-call standard

    Built with
    Component: ARM Compiler 5.06 update 6 (build 750) Tool: armasm [4d35ec]
    Component: ARM Compiler 5.06 update 6 (build 750) Tool: armlink [4d35ed]

    Header size: 52 bytes (0x34)
    Program header entry size: 32 bytes (0x20)
    Section header entry size: 40 bytes (0x28)

    Program header entries: 1
    Section header entries: 15

    Program header offset: 9436 (0x000024dc)
    Section header offset: 9468 (0x000024fc)

    Section header string table index: 14

========================================================================

** Program header #0 (PT_LOAD) [PF_X + PF_W + PF_R]
    Size : 444 bytes
    Virtual address: 0x0800b000 (Alignment 4)


========================================================================

** Section #1 'ER_IROM1' (SHT_PROGBITS) [SHF_ALLOC + SHF_EXECINSTR]
    Size   : 336 bytes (alignment 4)
    Address: 0x20000000

    $d.realdata
    RESET
    __Vectors
        0x20000000:    20010000    ...     DCD    536936448
        0x20000004:    20000009    ...     DCD    536870921
    $t
    .text
    Reset_Handler
        0x20000008:    f8dfd010    ....    LDR      sp,[pc,#16] ; [0x2000001c] = 0x20010000
        0x2000000c:    4804        .H      LDR      r0,[pc,#16] ; [0x20000020] = 0x800b000
        0x2000000e:    4905        .I      LDR      r1,[pc,#20] ; [0x20000024] = 0x20000000
        0x20000010:    4a05        .J      LDR      r2,[pc,#20] ; [0x20000028] = 0x1bc
        0x20000012:    f000f836    ..6.    BL       relocate_app ; 0x20000082
        0x20000016:    f8dff014    ....    LDR      pc,[pc,#20] ; [0x2000002c] = 0x200000e9
    $d
        0x2000001a:    0000        ..      DCW    0
        0x2000001c:    20010000    ...     DCD    536936448
        0x20000020:    0800b000    ....    DCD    134262784
        0x20000024:    20000000    ...     DCD    536870912
        0x20000028:    000001bc    ....    DCD    444
        0x2000002c:    200000e9    ...     DCD    536871145
    $t
    i.delay
    delay
        0x20000030:    bf00        ..      NOP      
        0x20000032:    1e41        A.      SUBS     r1,r0,#1
        0x20000034:    1e08        ..      SUBS     r0,r1,#0
        0x20000036:    d1fc        ..      BNE      0x20000032 ; delay + 2
        0x20000038:    4770        pG      BX       lr
        0x2000003a:    0000        ..      MOVS     r0,r0
    i.mygetchar
    mygetchar
        0x2000003c:    4904        .I      LDR      r1,[pc,#16] ; [0x20000050] = 0x40013800
        0x2000003e:    bf00        ..      NOP      
        0x20000040:    6808        .h      LDR      r0,[r1,#0]
        0x20000042:    f0000020    .. .    AND      r0,r0,#0x20
        0x20000046:    2800        .(      CMP      r0,#0
        0x20000048:    d0fa        ..      BEQ      0x20000040 ; mygetchar + 4
        0x2000004a:    6848        Hh      LDR      r0,[r1,#4]
        0x2000004c:    4770        pG      BX       lr
    $d
        0x2000004e:    0000        ..      DCW    0
        0x20000050:    40013800    .8.@    DCD    1073821696
    $t
    i.myputchar
    myputchar
        0x20000054:    4904        .I      LDR      r1,[pc,#16] ; [0x20000068] = 0x40013800
        0x20000056:    bf00        ..      NOP      
        0x20000058:    680a        .h      LDR      r2,[r1,#0]
        0x2000005a:    f0020280    ....    AND      r2,r2,#0x80
        0x2000005e:    2a00        .*      CMP      r2,#0
        0x20000060:    d0fa        ..      BEQ      0x20000058 ; myputchar + 4
        0x20000062:    6048        H`      STR      r0,[r1,#4]
        0x20000064:    4770        pG      BX       lr
    $d
        0x20000066:    0000        ..      DCW    0
        0x20000068:    40013800    .8.@    DCD    1073821696
    $t
    i.myputstr
    myputstr
        0x2000006c:    b500        ..      PUSH     {lr}
        0x2000006e:    4603        .F      MOV      r3,r0
        0x20000070:    e003        ..      B        0x2000007a ; myputstr + 14
        0x20000072:    7818        .x      LDRB     r0,[r3,#0]
        0x20000074:    f7ffffee    ....    BL       myputchar ; 0x20000054
        0x20000078:    1c5b        [.      ADDS     r3,r3,#1
        0x2000007a:    7818        .x      LDRB     r0,[r3,#0]
        0x2000007c:    2800        .(      CMP      r0,#0
        0x2000007e:    d1f8        ..      BNE      0x20000072 ; myputstr + 6
        0x20000080:    bd00        ..      POP      {pc}
    i.relocate_app
    relocate_app
        0x20000082:    b510        ..      PUSH     {r4,lr}
        0x20000084:    e003        ..      B        0x2000008e ; relocate_app + 12
        0x20000086:    f8103b01    ...;    LDRB     r3,[r0],#1
        0x2000008a:    f8013b01    ...;    STRB     r3,[r1],#1
        0x2000008e:    1e13        ..      SUBS     r3,r2,#0
        0x20000090:    f1a20201    ....    SUB      r2,r2,#1
        0x20000094:    d1f7        ..      BNE      0x20000086 ; relocate_app + 4
        0x20000096:    bd10        ..      POP      {r4,pc}
    i.uart_init
    uart_init
        0x20000098:    4910        .I      LDR      r1,[pc,#64] ; [0x200000dc] = 0x40013800
        0x2000009a:    4811        .H      LDR      r0,[pc,#68] ; [0x200000e0] = 0x40021018
        0x2000009c:    6802        .h      LDR      r2,[r0,#0]
        0x2000009e:    f2440304    D...    MOV      r3,#0x4004
        0x200000a2:    431a        .C      ORRS     r2,r2,r3
        0x200000a4:    6002        .`      STR      r2,[r0,#0]
        0x200000a6:    480f        .H      LDR      r0,[pc,#60] ; [0x200000e4] = 0x40010804
        0x200000a8:    6802        .h      LDR      r2,[r0,#0]
        0x200000aa:    f02202f0    "...    BIC      r2,r2,#0xf0
        0x200000ae:    6002        .`      STR      r2,[r0,#0]
        0x200000b0:    6802        .h      LDR      r2,[r0,#0]
        0x200000b2:    f0420290    B...    ORR      r2,r2,#0x90
        0x200000b6:    6002        .`      STR      r2,[r0,#0]
        0x200000b8:    6802        .h      LDR      r2,[r0,#0]
        0x200000ba:    f4226270    ".pb    BIC      r2,r2,#0xf00
        0x200000be:    6002        .`      STR      r2,[r0,#0]
        0x200000c0:    6802        .h      LDR      r2,[r0,#0]
        0x200000c2:    f4426280    B..b    ORR      r2,r2,#0x400
        0x200000c6:    6002        .`      STR      r2,[r0,#0]
        0x200000c8:    2245        E"      MOVS     r2,#0x45
        0x200000ca:    608a        .`      STR      r2,[r1,#8]
        0x200000cc:    f242020c    B...    MOV      r2,#0x200c
        0x200000d0:    60ca        .`      STR      r2,[r1,#0xc]
        0x200000d2:    690a        .i      LDR      r2,[r1,#0x10]
        0x200000d4:    f4225240    ".@R    BIC      r2,r2,#0x3000
        0x200000d8:    610a        .a      STR      r2,[r1,#0x10]
        0x200000da:    4770        pG      BX       lr
    $d
        0x200000dc:    40013800    .8.@    DCD    1073821696
        0x200000e0:    40021018    ...@    DCD    1073877016
        0x200000e4:    40010804    ...@    DCD    1073809412
    $t
    i.xmain
    xmain
        0x200000e8:    f7ffffd6    ....    BL       uart_init ; 0x20000098
        0x200000ec:    480a        .H      LDR      r0,[pc,#40] ; [0x20000118] = 0x2000006d
        0x200000ee:    490b        .I      LDR      r1,[pc,#44] ; [0x2000011c] = 0x20000150
        0x200000f0:    6008        .`      STR      r0,[r1,#0]
        0x200000f2:    4c0b        .L      LDR      r4,[pc,#44] ; [0x20000120] = 0x20000154
        0x200000f4:    a00b        ..      ADR      r0,{pc}+0x30 ; 0x20000124
        0x200000f6:    6809        .h      LDR      r1,[r1,#0]
        0x200000f8:    4788        .G      BLX      r1
        0x200000fa:    4620         F      MOV      r0,r4
        0x200000fc:    f7ffffb6    ....    BL       myputstr ; 0x2000006c
        0x20000100:    a00d        ..      ADR      r0,{pc}+0x38 ; 0x20000138
        0x20000102:    f7ffffb3    ....    BL       myputstr ; 0x2000006c
        0x20000106:    e005        ..      B        0x20000114 ; xmain + 44
        0x20000108:    a00c        ..      ADR      r0,{pc}+0x34 ; 0x2000013c
        0x2000010a:    f7ffffaf    ....    BL       myputstr ; 0x2000006c
        0x2000010e:    480f        .H      LDR      r0,[pc,#60] ; [0x2000014c] = 0xf4240
        0x20000110:    f7ffff8e    ....    BL       delay ; 0x20000030
        0x20000114:    e7f8        ..      B        0x20000108 ; xmain + 32
    $d
        0x20000116:    0000        ..      DCW    0
        0x20000118:    2000006d    m..     DCD    536871021
        0x2000011c:    20000150    P..     DCD    536871248
        0x20000120:    20000154    T..     DCD    536871252
        0x20000124:    70410a0d    ..Ap    DCD    1883310605
        0x20000128:    74532070    p St    DCD    1951604848
        0x2000012c:    21747261    art!    DCD    561279585
        0x20000130:    0a0d2121    !!..    DCD    168632609
        0x20000134:    00000000    ....    DCD    0
        0x20000138:    00000a0d    ....    DCD    2573
        0x2000013c:    20707061    app     DCD    544239713
        0x20000140:    696e7572    runi    DCD    1768846706
        0x20000144:    0a0d676e    ng..    DCD    168650606
        0x20000148:    00000000    ....    DCD    0
        0x2000014c:    000f4240    @B..    DCD    1000000

** Section #2 'ER_IROM1' (SHT_PROGBITS) [SHF_ALLOC + SHF_WRITE]
    Size   : 108 bytes (alignment 4)
    Address: 0x20000150


** Section #3 '.debug_abbrev' (SHT_PROGBITS)
    Size   : 1476 bytes


** Section #4 '.debug_frame' (SHT_PROGBITS)
    Size   : 356 bytes


** Section #5 '.debug_info' (SHT_PROGBITS)
    Size   : 2620 bytes


** Section #6 '.debug_line' (SHT_PROGBITS)
    Size   : 876 bytes


** Section #7 '.debug_loc' (SHT_PROGBITS)
    Size   : 316 bytes


** Section #8 '.debug_macinfo' (SHT_PROGBITS)
    Size   : 56 bytes


** Section #9 '.debug_pubnames' (SHT_PROGBITS)
    Size   : 256 bytes


** Section #10 '.symtab' (SHT_SYMTAB)
    Size   : 672 bytes (alignment 4)
    String table #11 '.strtab'
    Last local symbol no. 26


** Section #11 '.strtab' (SHT_STRTAB)
    Size   : 484 bytes


** Section #12 '.note' (SHT_NOTE)
    Size   : 24 bytes (alignment 4)


** Section #13 '.comment' (SHT_PROGBITS)
    Size   : 1660 bytes


** Section #14 '.shstrtab' (SHT_STRTAB)
    Size   : 144 bytes


address     size       variable name                            type
0x20000154  0x64       buf                                      array[100] of char

address     size       variable name                            type
0x20000150  0x4        fputstr                                  pointer to function 

